target datalayout = "e-m:e-p270:32:32-p271:32:32-p272:64:64-i64:64-i128:128-f80:128-n8:16:32:64-S128"
target triple = "x86_64-pc-linux-gnu"

%"class.g2o::RobotLaser" = type { %"class.g2o::RawLaser", %"class.g2o::SE2", double, double, double, double, double, [8 x i8] }
%"class.g2o::RawLaser" = type { %"class.g2o::RobotData", %"class.std::vector", %"class.std::vector", [8 x i8], %"struct.g2o::LaserParameters" }
%"class.g2o::RobotData" = type { %"class.g2o::HyperGraph::Data", double, double, %"class.std::__cxx11::basic_string", %"class.std::__cxx11::basic_string" }
%"class.g2o::HyperGraph::Data" = type { %"struct.g2o::HyperGraph::HyperGraphElement", ptr, ptr }
%"struct.g2o::HyperGraph::HyperGraphElement" = type { ptr }
%"class.std::__cxx11::basic_string" = type { %"struct.std::__cxx11::basic_string<char>::_Alloc_hider", i64, %union.anon }
%"struct.std::__cxx11::basic_string<char>::_Alloc_hider" = type { ptr }
%union.anon = type { i64, [8 x i8] }
%"class.std::vector" = type { %"struct.std::_Vector_base" }
%"struct.std::_Vector_base" = type { %"struct.std::_Vector_base<double, std::allocator<double>>::_Vector_impl" }
%"struct.std::_Vector_base<double, std::allocator<double>>::_Vector_impl" = type { %"struct.std::_Vector_base<double, std::allocator<double>>::_Vector_impl_data" }
%"struct.std::_Vector_base<double, std::allocator<double>>::_Vector_impl_data" = type { ptr, ptr, ptr }
%"struct.g2o::LaserParameters" = type { %"class.g2o::SE2", i32, double, double, double, double, i32, double, double }
%"class.g2o::SE2" = type { %"class.Eigen::Rotation2D", [8 x i8], %"class.Eigen::Matrix" }
%"class.Eigen::Rotation2D" = type { double }
%"class.Eigen::Matrix" = type { %"class.Eigen::PlainObjectBase" }
%"class.Eigen::PlainObjectBase" = type { %"class.Eigen::DenseStorage" }
%"class.Eigen::DenseStorage" = type { %"struct.Eigen::internal::plain_array" }
%"struct.Eigen::internal::plain_array" = type { [2 x double] }

; Function Attrs: mustprogress nounwind uwtable
define linkonce_odr void @_ZN5Eigen8internal28check_static_allocation_sizeIdLi2EEEvv() #4 comdat {
  ret void
}

; Function Attrs: mustprogress uwtable
define linkonce_odr void @_ZN5Eigen8internal11plain_arrayIdLi2ELi0ELi16EEC2Ev(ptr noundef nonnull align 16 dereferenceable(16) %0) unnamed_addr #5 comdat align 2 {
  %2 = alloca ptr, align 8
  store ptr %0, ptr %2, align 8
  call void @_ZN5Eigen8internal28check_static_allocation_sizeIdLi2EEEvv()
  ret void
}

; Function Attrs: mustprogress nounwind uwtable
define linkonce_odr void @_ZN5Eigen9DenseBaseINS_6MatrixIdLi2ELi1ELi0ELi2ELi1EEEEC2Ev(ptr noundef nonnull align 1 dereferenceable(1) %0) unnamed_addr #4 comdat align 2 {
  %2 = alloca ptr, align 8
  store ptr %0, ptr %2, align 8
  ret void
}

; Function Attrs: mustprogress nounwind uwtable
define linkonce_odr noundef ptr @_ZN5Eigen12DenseStorageIdLi2ELi2ELi1ELi0EE4dataEv(ptr noundef nonnull align 16 dereferenceable(16) %0) #4 comdat align 2 {
  %2 = alloca ptr, align 8
  store ptr %0, ptr %2, align 8
  %3 = load ptr, ptr %2, align 8
  %4 = getelementptr inbounds nuw %"class.Eigen::DenseStorage", ptr %3, i32 0, i32 0
  %5 = getelementptr inbounds nuw %"struct.Eigen::internal::plain_array", ptr %4, i32 0, i32 0
  %6 = getelementptr inbounds [2 x double], ptr %5, i64 0, i64 0
  ret ptr %6
}

; Function Attrs: mustprogress uwtable
define linkonce_odr void @_ZN5Eigen12DenseStorageIdLi2ELi2ELi1ELi0EEC2Ev(ptr noundef nonnull align 16 dereferenceable(16) %0) unnamed_addr #5 comdat align 2 {
  %2 = alloca ptr, align 8
  store ptr %0, ptr %2, align 8
  %3 = load ptr, ptr %2, align 8
  %4 = getelementptr inbounds nuw %"class.Eigen::DenseStorage", ptr %3, i32 0, i32 0
  call void @_ZN5Eigen8internal11plain_arrayIdLi2ELi0ELi16EEC2Ev(ptr noundef nonnull align 16 dereferenceable(16) %4)
  ret void
}

; Function Attrs: mustprogress uwtable
define linkonce_odr void @_ZN5Eigen10MatrixBaseINS_6MatrixIdLi2ELi1ELi0ELi2ELi1EEEEC2Ev(ptr noundef nonnull align 1 dereferenceable(1) %0) unnamed_addr #5 comdat align 2 {
  %2 = alloca ptr, align 8
  store ptr %0, ptr %2, align 8
  %3 = load ptr, ptr %2, align 8
  call void @_ZN5Eigen9DenseBaseINS_6MatrixIdLi2ELi1ELi0ELi2ELi1EEEEC2Ev(ptr noundef nonnull align 1 dereferenceable(1) %3)
  ret void
}

; Function Attrs: mustprogress uwtable
define linkonce_odr void @_ZN5Eigen15PlainObjectBaseINS_6MatrixIdLi2ELi1ELi0ELi2ELi1EEEE6_init2IiiEEvRKT_RKT0_PNS_8internal9enable_ifILb1ES5_E4typeE(ptr noundef nonnull align 16 dereferenceable(16) %0, ptr noundef nonnull align 4 dereferenceable(4) %1, ptr noundef nonnull align 4 dereferenceable(4) %2, ptr noundef %3) #5 comdat align 2 {
  %5 = alloca ptr, align 8
  %6 = alloca ptr, align 8
  %7 = alloca ptr, align 8
  %8 = alloca ptr, align 8
  store ptr %0, ptr %5, align 8
  store ptr %1, ptr %6, align 8
  store ptr %2, ptr %7, align 8
  store ptr %3, ptr %8, align 8
  %9 = load ptr, ptr %5, align 8
  %10 = load ptr, ptr %6, align 8
  %11 = load i32, ptr %10, align 4
  %12 = sitofp i32 %11 to double
  %13 = getelementptr inbounds nuw %"class.Eigen::PlainObjectBase", ptr %9, i32 0, i32 0
  %14 = call noundef ptr @_ZN5Eigen12DenseStorageIdLi2ELi2ELi1ELi0EE4dataEv(ptr noundef nonnull align 16 dereferenceable(16) %13)
  %15 = getelementptr inbounds double, ptr %14, i64 0
  store double %12, ptr %15, align 8
  %16 = load ptr, ptr %7, align 8
  %17 = load i32, ptr %16, align 4
  %18 = sitofp i32 %17 to double
  %19 = getelementptr inbounds nuw %"class.Eigen::PlainObjectBase", ptr %9, i32 0, i32 0
  %20 = call noundef ptr @_ZN5Eigen12DenseStorageIdLi2ELi2ELi1ELi0EE4dataEv(ptr noundef nonnull align 16 dereferenceable(16) %19)
  %21 = getelementptr inbounds double, ptr %20, i64 1
  store double %18, ptr %21, align 8
  ret void
}

; Function Attrs: mustprogress nounwind uwtable
define linkonce_odr void @_ZN5Eigen15PlainObjectBaseINS_6MatrixIdLi2ELi1ELi0ELi2ELi1EEEE22_check_template_paramsEv() #4 comdat align 2 {
  ret void
}

; Function Attrs: mustprogress uwtable
define linkonce_odr void @_ZN5Eigen15PlainObjectBaseINS_6MatrixIdLi2ELi1ELi0ELi2ELi1EEEEC2Ev(ptr noundef nonnull align 16 dereferenceable(16) %0) unnamed_addr #5 comdat align 2 {
  %2 = alloca ptr, align 8
  store ptr %0, ptr %2, align 8
  %3 = load ptr, ptr %2, align 8
  call void @_ZN5Eigen10MatrixBaseINS_6MatrixIdLi2ELi1ELi0ELi2ELi1EEEEC2Ev(ptr noundef nonnull align 1 dereferenceable(1) %3)
  %4 = getelementptr inbounds nuw %"class.Eigen::PlainObjectBase", ptr %3, i32 0, i32 0
  call void @_ZN5Eigen12DenseStorageIdLi2ELi2ELi1ELi0EEC2Ev(ptr noundef nonnull align 16 dereferenceable(16) %4)
  ret void
}

; Function Attrs: mustprogress uwtable
define linkonce_odr void @_ZN5Eigen6MatrixIdLi2ELi1ELi0ELi2ELi1EEC2IiiEERKT_RKT0_(ptr noundef nonnull align 16 dereferenceable(16) %0, ptr noundef nonnull align 4 dereferenceable(4) %1, ptr noundef nonnull align 4 dereferenceable(4) %2) unnamed_addr #5 comdat align 2 {
  %4 = alloca ptr, align 8
  %5 = alloca ptr, align 8
  %6 = alloca ptr, align 8
  store ptr %0, ptr %4, align 8
  store ptr %1, ptr %5, align 8
  store ptr %2, ptr %6, align 8
  %7 = load ptr, ptr %4, align 8
  call void @_ZN5Eigen15PlainObjectBaseINS_6MatrixIdLi2ELi1ELi0ELi2ELi1EEEEC2Ev(ptr noundef nonnull align 16 dereferenceable(16) %7)
  call void @_ZN5Eigen15PlainObjectBaseINS_6MatrixIdLi2ELi1ELi0ELi2ELi1EEEE22_check_template_paramsEv()
  %8 = load ptr, ptr %5, align 8
  %9 = load ptr, ptr %6, align 8
  call void @_ZN5Eigen15PlainObjectBaseINS_6MatrixIdLi2ELi1ELi0ELi2ELi1EEEE6_init2IiiEEvRKT_RKT0_PNS_8internal9enable_ifILb1ES5_E4typeE(ptr noundef nonnull align 16 dereferenceable(16) %7, ptr noundef nonnull align 4 dereferenceable(4) %8, ptr noundef nonnull align 4 dereferenceable(4) %9, ptr noundef null)
  ret void
}

; Function Attrs: mustprogress nounwind uwtable
define linkonce_odr void @_ZN5Eigen10Rotation2DIdEC2ERKd(ptr noundef nonnull align 8 dereferenceable(8) %0, ptr noundef nonnull align 8 dereferenceable(8) %1) unnamed_addr #4 comdat align 2 {
  %3 = alloca ptr, align 8
  %4 = alloca ptr, align 8
  store ptr %0, ptr %3, align 8
  store ptr %1, ptr %4, align 8
  %5 = load ptr, ptr %3, align 8
  %6 = getelementptr inbounds nuw %"class.Eigen::Rotation2D", ptr %5, i32 0, i32 0
  %7 = load ptr, ptr %4, align 8
  %8 = load double, ptr %7, align 8
  store double %8, ptr %6, align 8
  ret void
}

; Function Attrs: mustprogress uwtable
define linkonce_odr void @_ZN3g2o3SE2C2Ev(ptr noundef nonnull align 16 dereferenceable(32) %0) unnamed_addr #5 comdat align 2 {
  %2 = alloca ptr, align 8
  %3 = alloca double, align 8
  %4 = alloca i32, align 4
  %5 = alloca i32, align 4
  store ptr %0, ptr %2, align 8
  %6 = load ptr, ptr %2, align 8
  %7 = getelementptr inbounds nuw %"class.g2o::SE2", ptr %6, i32 0, i32 0
  store double 0.000000e+00, ptr %3, align 8
  call void @_ZN5Eigen10Rotation2DIdEC2ERKd(ptr noundef nonnull align 8 dereferenceable(8) %7, ptr noundef nonnull align 8 dereferenceable(8) %3)
  %8 = getelementptr inbounds nuw %"class.g2o::SE2", ptr %6, i32 0, i32 2
  store i32 0, ptr %4, align 4
  store i32 0, ptr %5, align 4
  call void @_ZN5Eigen6MatrixIdLi2ELi1ELi0ELi2ELi1EEC2IiiEERKT_RKT0_(ptr noundef nonnull align 16 dereferenceable(16) %8, ptr noundef nonnull align 4 dereferenceable(4) %4, ptr noundef nonnull align 4 dereferenceable(4) %5)
  ret void
}

; Function Attrs: mustprogress uwtable
define void @_ZN3g2o10RobotLaserC2Ev(ptr noundef nonnull align 16 dereferenceable(328) %0) unnamed_addr #5 align 2 personality ptr @__gxx_personality_v0 {
  %2 = alloca ptr, align 8
  %3 = alloca ptr, align 8
  %4 = alloca i32, align 4
  store ptr %0, ptr %2, align 8
  %5 = load ptr, ptr %2, align 8
  call void @_ZN3g2o8RawLaserC2Ev(ptr noundef nonnull align 16 dereferenceable(256) %5)
  store ptr getelementptr inbounds inrange(-16, 40) ({ [7 x ptr] }, ptr @_ZTVN3g2o10RobotLaserE, i32 0, i32 0, i32 2), ptr %5, align 16
  %6 = getelementptr inbounds nuw %"class.g2o::RobotLaser", ptr %5, i32 0, i32 1
  invoke void @_ZN3g2o3SE2C2Ev(ptr noundef nonnull align 16 dereferenceable(32) %6)
          to label %7 unwind label %13

7:                                                ; preds = %1
  %8 = getelementptr inbounds nuw %"class.g2o::RobotLaser", ptr %5, i32 0, i32 2
  store double 0.000000e+00, ptr %8, align 16
  %9 = getelementptr inbounds nuw %"class.g2o::RobotLaser", ptr %5, i32 0, i32 3
  store double 0.000000e+00, ptr %9, align 8
  %10 = getelementptr inbounds nuw %"class.g2o::RobotLaser", ptr %5, i32 0, i32 4
  store double 0.000000e+00, ptr %10, align 16
  %11 = getelementptr inbounds nuw %"class.g2o::RobotLaser", ptr %5, i32 0, i32 5
  store double 0.000000e+00, ptr %11, align 8
  %12 = getelementptr inbounds nuw %"class.g2o::RobotLaser", ptr %5, i32 0, i32 6
  store double 0.000000e+00, ptr %12, align 16
  ret void

13:                                               ; preds = %1
  %14 = landingpad { ptr, i32 }
          cleanup
  %15 = extractvalue { ptr, i32 } %14, 0
  store ptr %15, ptr %3, align 8
  %16 = extractvalue { ptr, i32 } %14, 1
  store i32 %16, ptr %4, align 4
  call void @_ZN3g2o8RawLaserD2Ev(ptr noundef nonnull align 16 dereferenceable(256) %5) #3
  br label %17

17:                                               ; preds = %13
  %18 = load ptr, ptr %3, align 8
  %19 = load i32, ptr %4, align 4
  %20 = insertvalue { ptr, i32 } poison, ptr %18, 0
  %21 = insertvalue { ptr, i32 } %20, i32 %19, 1
  resume { ptr, i32 } %21
}